target datalayout = "e-m:e-p270:32:32-p271:32:32-p272:64:64-i64:64-i128:128-f80:128-n8:16:32:64-S128"
target triple = "x86_64-pc-linux-gnu"

; Function Attrs: mustprogress nounwind uwtable
define noundef ptr @_ZNK4LIEF2PE10SignerInfo13get_attributeENS0_9Attribute4TYPEE(ptr noundef nonnull align 8 dereferenceable(184) %0, i32 noundef %1) #0 align 2 {
  %3 = alloca ptr, align 8
  %4 = alloca ptr, align 8
  %5 = alloca i32, align 4
  %6 = alloca ptr, align 8
  %7 = alloca i32, align 4
  %8 = alloca ptr, align 8
  store ptr %0, ptr %4, align 8, !tbaa !3
  store i32 %1, ptr %5, align 4, !tbaa !74
  %9 = load ptr, ptr %4, align 8
  call void @llvm.lifetime.start.p0(i64 8, ptr %6) #19
  %10 = load i32, ptr %5, align 4, !tbaa !74
  %11 = call noundef ptr @_ZNK4LIEF2PE10SignerInfo18get_auth_attributeENS0_9Attribute4TYPEE(ptr noundef nonnull align 8 dereferenceable(184) %9, i32 noundef %10)
  store ptr %11, ptr %6, align 8, !tbaa !65
  %12 = load ptr, ptr %6, align 8, !tbaa !65
  %13 = icmp ne ptr %12, null
  br i1 %13, label %14, label %16

14:                                               ; preds = %2
  %15 = load ptr, ptr %6, align 8, !tbaa !65
  store ptr %15, ptr %3, align 8
  store i32 1, ptr %7, align 4
  br label %17

16:                                               ; preds = %2
  store i32 0, ptr %7, align 4
  br label %17

17:                                               ; preds = %16, %14
  call void @llvm.lifetime.end.p0(i64 8, ptr %6) #19
  %18 = load i32, ptr %7, align 4
  switch i32 %18, label %32 [
    i32 0, label %19
    i32 1, label %30
  ]

19:                                               ; preds = %17
  call void @llvm.lifetime.start.p0(i64 8, ptr %8) #19
  %20 = load i32, ptr %5, align 4, !tbaa !74
  %21 = call noundef ptr @_ZNK4LIEF2PE10SignerInfo20get_unauth_attributeENS0_9Attribute4TYPEE(ptr noundef nonnull align 8 dereferenceable(184) %9, i32 noundef %20)
  store ptr %21, ptr %8, align 8, !tbaa !65
  %22 = load ptr, ptr %8, align 8, !tbaa !65
  %23 = icmp ne ptr %22, null
  br i1 %23, label %24, label %26

24:                                               ; preds = %19
  %25 = load ptr, ptr %8, align 8, !tbaa !65
  store ptr %25, ptr %3, align 8
  store i32 1, ptr %7, align 4
  br label %27

26:                                               ; preds = %19
  store i32 0, ptr %7, align 4
  br label %27

27:                                               ; preds = %26, %24
  call void @llvm.lifetime.end.p0(i64 8, ptr %8) #19
  %28 = load i32, ptr %7, align 4
  switch i32 %28, label %32 [
    i32 0, label %29
    i32 1, label %30
  ]

29:                                               ; preds = %27
  store ptr null, ptr %3, align 8
  br label %30

30:                                               ; preds = %29, %27, %17
  %31 = load ptr, ptr %3, align 8
  ret ptr %31

32:                                               ; preds = %27, %17
  unreachable
}