; Function Attrs: mustprogress nounwind uwtable
define noundef ptr @_ZNK4LIEF2PE10SignerInfo13get_attributeENS0_9Attribute4TYPEE(ptr noundef nonnull readonly align 8 captures(none) dereferenceable(184) %0, i32 noundef %1) local_unnamed_addr #0 align 2 {
  %3 = tail call noundef ptr @_ZNK4LIEF2PE10SignerInfo18get_auth_attributeENS0_9Attribute4TYPEE(ptr noundef nonnull align 8 dereferenceable(184) %0, i32 noundef %1)
  %.not.not = icmp eq ptr %3, null
  br i1 %.not.not, label %4, label %6

4:                                                ; preds = %2
  %5 = tail call noundef ptr @_ZNK4LIEF2PE10SignerInfo20get_unauth_attributeENS0_9Attribute4TYPEE(ptr noundef nonnull align 8 dereferenceable(184) %0, i32 noundef %1)
  br label %6

6:                                                ; preds = %4, %2
  %.1 = phi ptr [ %3, %2 ], [ %5, %4 ]
  ret ptr %.1
}